; Function Attrs: nounwind uwtable
define ptr @l___private_Lean_Elab_SyntheticMVars_0__Lean_Elab_Term_synthesizeSomeUsingDefaultPrio(ptr noundef %0, ptr noundef %1, ptr noundef %2, ptr noundef %3, ptr noundef %4, ptr noundef %5, ptr noundef %6, ptr noundef %7) local_unnamed_addr #0 {
  %9 = tail call ptr @lean_st_ref_get(ptr noundef %2, ptr noundef %7) #7
  %10 = getelementptr inbounds nuw i8, ptr %9, i64 8
  %11 = load ptr, ptr %10, align 8, !tbaa !10
  %12 = ptrtoint ptr %11 to i64
  %13 = and i64 %12, 1
  %.not = icmp eq i64 %13, 0
  br i1 %.not, label %14, label %lean_inc.exit23

14:                                               ; preds = %8
  %.val.i = load i32, ptr %11, align 4, !tbaa !7
  %15 = icmp sgt i32 %.val.i, 0
  br i1 %15, label %16, label %18, !prof !12

16:                                               ; preds = %14
  %17 = add nuw i32 %.val.i, 1
  store i32 %17, ptr %11, align 4, !tbaa !7
  br label %lean_inc.exit23

18:                                               ; preds = %14
  %.not.i27 = icmp eq i32 %.val.i, 0
  br i1 %.not.i27, label %lean_inc.exit23, label %19

19:                                               ; preds = %18
  tail call void @lean_inc_ref_cold(ptr noundef nonnull %11) #7
  br label %lean_inc.exit23

lean_inc.exit23:                                  ; preds = %19, %18, %16, %8
  %20 = getelementptr inbounds nuw i8, ptr %9, i64 16
  %21 = load ptr, ptr %20, align 8, !tbaa !10
  %22 = ptrtoint ptr %21 to i64
  %23 = and i64 %22, 1
  %.not34 = icmp eq i64 %23, 0
  br i1 %.not34, label %24, label %lean_inc.exit22

24:                                               ; preds = %lean_inc.exit23
  %.val.i28 = load i32, ptr %21, align 4, !tbaa !7
  %25 = icmp sgt i32 %.val.i28, 0
  br i1 %25, label %26, label %28, !prof !12

26:                                               ; preds = %24
  %27 = add nuw i32 %.val.i28, 1
  store i32 %27, ptr %21, align 4, !tbaa !7
  br label %lean_inc.exit22

28:                                               ; preds = %24
  %.not.i29 = icmp eq i32 %.val.i28, 0
  br i1 %.not.i29, label %lean_inc.exit22, label %29

29:                                               ; preds = %28
  tail call void @lean_inc_ref_cold(ptr noundef nonnull %21) #7
  br label %lean_inc.exit22

lean_inc.exit22:                                  ; preds = %29, %28, %26, %lean_inc.exit23
  %30 = ptrtoint ptr %9 to i64
  %31 = and i64 %30, 1
  %.not35 = icmp eq i64 %31, 0
  br i1 %.not35, label %32, label %lean_dec.exit24

32:                                               ; preds = %lean_inc.exit22
  %33 = load i32, ptr %9, align 4, !tbaa !7
  %34 = icmp sgt i32 %33, 1
  br i1 %34, label %35, label %37, !prof !12

35:                                               ; preds = %32
  %36 = add nsw i32 %33, -1
  store i32 %36, ptr %9, align 4, !tbaa !7
  br label %lean_dec.exit24

37:                                               ; preds = %32
  %.not.i = icmp eq i32 %33, 0
  br i1 %.not.i, label %lean_dec.exit24, label %38

38:                                               ; preds = %37
  tail call void @lean_dec_ref_cold(ptr noundef nonnull %9) #7
  br label %lean_dec.exit24

lean_dec.exit24:                                  ; preds = %38, %37, %35, %lean_inc.exit22
  %39 = getelementptr inbounds nuw i8, ptr %11, i64 24
  %40 = load ptr, ptr %39, align 8, !tbaa !10
  %41 = ptrtoint ptr %40 to i64
  %42 = and i64 %41, 1
  %.not36 = icmp eq i64 %42, 0
  br i1 %.not36, label %43, label %lean_inc.exit

43:                                               ; preds = %lean_dec.exit24
  %.val.i31 = load i32, ptr %40, align 4, !tbaa !7
  %44 = icmp sgt i32 %.val.i31, 0
  br i1 %44, label %45, label %47, !prof !12

45:                                               ; preds = %43
  %46 = add nuw i32 %.val.i31, 1
  store i32 %46, ptr %40, align 4, !tbaa !7
  br label %lean_inc.exit

47:                                               ; preds = %43
  %.not.i32 = icmp eq i32 %.val.i31, 0
  br i1 %.not.i32, label %lean_inc.exit, label %48

48:                                               ; preds = %47
  tail call void @lean_inc_ref_cold(ptr noundef nonnull %40) #7
  br label %lean_inc.exit

lean_inc.exit:                                    ; preds = %48, %47, %45, %lean_dec.exit24
  br i1 %.not, label %49, label %lean_dec.exit

49:                                               ; preds = %lean_inc.exit
  %50 = load i32, ptr %11, align 4, !tbaa !7
  %51 = icmp sgt i32 %50, 1
  br i1 %51, label %52, label %54, !prof !12

52:                                               ; preds = %49
  %53 = add nsw i32 %50, -1
  store i32 %53, ptr %11, align 4, !tbaa !7
  br label %lean_dec.exit

54:                                               ; preds = %49
  %.not.i25 = icmp eq i32 %50, 0
  br i1 %.not.i25, label %lean_dec.exit, label %55

55:                                               ; preds = %54
  tail call void @lean_dec_ref_cold(ptr noundef nonnull %11) #7
  br label %lean_dec.exit

lean_dec.exit:                                    ; preds = %55, %54, %52, %lean_inc.exit
  %56 = tail call ptr @l_List_reverse___rarg(ptr noundef %40) #7
  %57 = tail call ptr @l___private_Lean_Elab_SyntheticMVars_0__Lean_Elab_Term_synthesizeSomeUsingDefaultPrio_visit(ptr noundef %0, ptr noundef %56, ptr noundef nonnull inttoptr (i64 1 to ptr), ptr noundef %1, ptr noundef %2, ptr noundef %3, ptr noundef %4, ptr noundef %5, ptr noundef %6, ptr noundef %21)
  ret ptr %57
}